; Function Attrs: nofree norecurse nosync nounwind memory(argmem: read) uwtable
define i32 @fdt_num_mem_rsv(ptr noundef readonly captures(none) %0) local_unnamed_addr #4 {
.split.preheader:
  %1 = getelementptr inbounds nuw i8, ptr %0, i64 16
  %2 = load i8, ptr %1, align 1, !tbaa !3
  %3 = zext i8 %2 to i32
  %4 = shl nuw i32 %3, 24
  %5 = getelementptr inbounds nuw i8, ptr %0, i64 17
  %6 = load i8, ptr %5, align 1, !tbaa !3
  %7 = zext i8 %6 to i32
  %8 = shl nuw nsw i32 %7, 16
  %9 = or disjoint i32 %8, %4
  %10 = getelementptr inbounds nuw i8, ptr %0, i64 18
  %11 = load i8, ptr %10, align 1, !tbaa !3
  %12 = zext i8 %11 to i32
  %13 = shl nuw nsw i32 %12, 8
  %14 = or disjoint i32 %9, %13
  %15 = getelementptr inbounds nuw i8, ptr %0, i64 19
  %16 = load i8, ptr %15, align 1, !tbaa !3
  %17 = zext i8 %16 to i32
  %18 = or disjoint i32 %14, %17
  %19 = getelementptr inbounds nuw i8, ptr %0, i64 4
  %20 = load i8, ptr %19, align 1, !tbaa !3
  %21 = zext i8 %20 to i64
  %22 = shl nuw nsw i64 %21, 24
  %23 = getelementptr inbounds nuw i8, ptr %0, i64 5
  %24 = load i8, ptr %23, align 1, !tbaa !3
  %25 = zext i8 %24 to i64
  %26 = shl nuw nsw i64 %25, 16
  %27 = or disjoint i64 %26, %22
  %28 = getelementptr inbounds nuw i8, ptr %0, i64 6
  %29 = load i8, ptr %28, align 1, !tbaa !3
  %30 = zext i8 %29 to i64
  %31 = shl nuw nsw i64 %30, 8
  %32 = or disjoint i64 %27, %31
  %33 = getelementptr inbounds nuw i8, ptr %0, i64 7
  %34 = load i8, ptr %33, align 1, !tbaa !3
  %35 = zext i8 %34 to i64
  %36 = or disjoint i64 %32, %35
  %37 = add nsw i64 %36, -16
  %38 = zext i8 %6 to i64
  %39 = shl nuw nsw i64 %38, 16
  %40 = zext i8 %2 to i64
  %41 = shl nuw nsw i64 %40, 24
  %42 = or disjoint i64 %39, %41
  %43 = zext i8 %11 to i64
  %44 = shl nuw nsw i64 %43, 8
  %45 = or disjoint i64 %42, %44
  %46 = zext i8 %16 to i64
  %47 = or disjoint i64 %45, %46
  %48 = getelementptr inbounds nuw i8, ptr %0, i64 %47
  br label %.split

.split:                                           ; preds = %.split.preheader, %92
  %indvars.iv = phi i64 [ 0, %.split.preheader ], [ %indvars.iv.next, %92 ]
  %49 = phi i32 [ %18, %.split.preheader ], [ %95, %92 ]
  %50 = sext i32 %49 to i64
  %51 = icmp ult i64 %37, %50
  br i1 %51, label %fdt_mem_rsv.exit.thread.split, label %52

52:                                               ; preds = %.split
  %53 = getelementptr inbounds nuw %struct.fdt_reserve_entry, ptr %48, i64 %indvars.iv, i32 1
  %54 = load i8, ptr %53, align 1, !tbaa !3
  %55 = zext i8 %54 to i64
  %56 = shl nuw i64 %55, 56
  %57 = getelementptr inbounds nuw i8, ptr %53, i64 1
  %58 = load i8, ptr %57, align 1, !tbaa !3
  %59 = zext i8 %58 to i64
  %60 = shl nuw nsw i64 %59, 48
  %61 = or disjoint i64 %60, %56
  %62 = getelementptr inbounds nuw i8, ptr %53, i64 2
  %63 = load i8, ptr %62, align 1, !tbaa !3
  %64 = zext i8 %63 to i64
  %65 = shl nuw nsw i64 %64, 40
  %66 = or disjoint i64 %61, %65
  %67 = getelementptr inbounds nuw i8, ptr %53, i64 3
  %68 = load i8, ptr %67, align 1, !tbaa !3
  %69 = zext i8 %68 to i64
  %70 = shl nuw nsw i64 %69, 32
  %71 = or disjoint i64 %66, %70
  %72 = getelementptr inbounds nuw i8, ptr %53, i64 4
  %73 = load i8, ptr %72, align 1, !tbaa !3
  %74 = zext i8 %73 to i64
  %75 = shl nuw nsw i64 %74, 24
  %76 = or disjoint i64 %71, %75
  %77 = getelementptr inbounds nuw i8, ptr %53, i64 5
  %78 = load i8, ptr %77, align 1, !tbaa !3
  %79 = zext i8 %78 to i64
  %80 = shl nuw nsw i64 %79, 16
  %81 = or disjoint i64 %76, %80
  %82 = getelementptr inbounds nuw i8, ptr %53, i64 6
  %83 = load i8, ptr %82, align 1, !tbaa !3
  %84 = zext i8 %83 to i64
  %85 = shl nuw nsw i64 %84, 8
  %86 = or i64 %81, %85
  %87 = getelementptr inbounds nuw i8, ptr %53, i64 7
  %88 = load i8, ptr %87, align 1, !tbaa !3
  %89 = zext i8 %88 to i64
  %90 = or i64 %86, %89
  %91 = icmp eq i64 %90, 0
  br i1 %91, label %fdt_mem_rsv.exit.thread.split.split.loop.exit, label %92

92:                                               ; preds = %52
  %indvars.iv.next = add nuw nsw i64 %indvars.iv, 1
  %93 = trunc nsw i64 %indvars.iv.next to i32
  %94 = shl i32 %93, 4
  %95 = add i32 %18, %94
  %96 = icmp ult i32 %95, %18
  br i1 %96, label %fdt_mem_rsv.exit.thread.split, label %.split, !llvm.loop !10

fdt_mem_rsv.exit.thread.split.split.loop.exit:    ; preds = %52
  %97 = trunc nuw nsw i64 %indvars.iv to i32
  br label %fdt_mem_rsv.exit.thread.split

fdt_mem_rsv.exit.thread.split:                    ; preds = %.split, %92, %fdt_mem_rsv.exit.thread.split.split.loop.exit
  %.0.split.ph = phi i32 [ %97, %fdt_mem_rsv.exit.thread.split.split.loop.exit ], [ -8, %92 ], [ -8, %.split ]
  ret i32 %.0.split.ph
}